; Function Attrs: nounwind uwtable
define void @BN_BLINDING_free(ptr noundef %0) local_unnamed_addr #0 {
  %2 = icmp eq ptr %0, null
  br i1 %2, label %13, label %3

3:                                                ; preds = %1
  %4 = load ptr, ptr %0, align 8, !tbaa !13
  tail call void @BN_free(ptr noundef %4) #6
  %5 = getelementptr inbounds nuw i8, ptr %0, i64 8
  %6 = load ptr, ptr %5, align 8, !tbaa !14
  tail call void @BN_free(ptr noundef %6) #6
  %7 = getelementptr inbounds nuw i8, ptr %0, i64 16
  %8 = load ptr, ptr %7, align 8, !tbaa !17
  tail call void @BN_free(ptr noundef %8) #6
  %9 = getelementptr inbounds nuw i8, ptr %0, i64 24
  %10 = load ptr, ptr %9, align 8, !tbaa !15
  tail call void @BN_free(ptr noundef %10) #6
  %11 = getelementptr inbounds nuw i8, ptr %0, i64 72
  %12 = load ptr, ptr %11, align 8, !tbaa !3
  tail call void @CRYPTO_THREAD_lock_free(ptr noundef %12) #6
  tail call void @CRYPTO_free(ptr noundef nonnull %0, ptr noundef nonnull @.str, i32 noundef 88) #6
  br label %13

13:                                               ; preds = %1, %3
  ret void
}